target datalayout = "e-m:e-p270:32:32-p271:32:32-p272:64:64-i64:64-i128:128-f80:128-n8:16:32:64-S128"
target triple = "x86_64-unknown-linux-gnu"

%"struct.std::atomic.5" = type { %"struct.std::__atomic_base.6" }
%"struct.std::__atomic_base.6" = type { i8 }
%"class.grpc_core::ExecCtx" = type { ptr, %struct.grpc_closure_list, %"struct.grpc_core::ExecCtx::CombinerData", i64, %"class.grpc_core::ScopedTimeCache", ptr }
%struct.grpc_closure_list = type { ptr, ptr }
%"struct.grpc_core::ExecCtx::CombinerData" = type { ptr, ptr }
%"class.grpc_core::ScopedTimeCache" = type { %"class.grpc_core::Timestamp::ScopedSource", %"class.std::optional" }
%"class.grpc_core::Timestamp::ScopedSource" = type { %"class.grpc_core::Timestamp::Source", ptr }
%"class.grpc_core::Timestamp::Source" = type { ptr }
%"class.std::optional" = type { %"struct.std::_Optional_base" }
%"struct.std::_Optional_base" = type { %"struct.std::_Optional_payload" }
%"struct.std::_Optional_payload" = type { %"struct.std::_Optional_payload_base.base", [7 x i8] }
%"struct.std::_Optional_payload_base.base" = type <{ %"union.std::_Optional_payload_base<grpc_core::Timestamp>::_Storage", i8 }>
%"union.std::_Optional_payload_base<grpc_core::Timestamp>::_Storage" = type { %"class.grpc_core::Timestamp" }
%"class.grpc_core::Timestamp" = type { i64 }
%"struct.std::_Optional_payload_base" = type <{ %"union.std::_Optional_payload_base<grpc_core::Timestamp>::_Storage", i8, [7 x i8] }>

@_ZTVN9grpc_core7ExecCtxE = linkonce_odr unnamed_addr constant { [5 x ptr] } { [5 x ptr] [ptr null, ptr @_ZTIN9grpc_core7ExecCtxE, ptr @_ZN9grpc_core7ExecCtxD2Ev, ptr @_ZN9grpc_core7ExecCtxD0Ev, ptr @_ZN9grpc_core7ExecCtx18CheckReadyToFinishEv] }, comdat, align 8
@_ZTVN9grpc_core15ScopedTimeCacheE = external unnamed_addr constant { [4 x ptr] }, align 8
@_ZTVN9grpc_core9Timestamp12ScopedSourceE = linkonce_odr unnamed_addr constant { [4 x ptr] } { [4 x ptr] [ptr null, ptr @_ZTIN9grpc_core9Timestamp12ScopedSourceE, ptr @__cxa_pure_virtual, ptr @_ZN9grpc_core9Timestamp12ScopedSource15InvalidateCacheEv] }, comdat, align 8
@_ZN9grpc_core9Timestamp25thread_local_time_source_E = external thread_local global ptr, align 8
@_ZTVN9grpc_core9Timestamp6SourceE = linkonce_odr unnamed_addr constant { [4 x ptr] } { [4 x ptr] [ptr null, ptr @_ZTIN9grpc_core9Timestamp6SourceE, ptr @__cxa_pure_virtual, ptr @_ZN9grpc_core9Timestamp6Source15InvalidateCacheEv] }, comdat, align 8
@_ZN9grpc_core7ExecCtx9exec_ctx_E = external thread_local global ptr, align 8
@_ZN9grpc_core4Fork16support_enabled_E = external global %"struct.std::atomic.5", align 1

; Function Attrs: mustprogress nounwind uwtable
define linkonce_odr void @_ZNSt22_Optional_payload_baseIN9grpc_core9TimestampEE8_StorageIS1_Lb1EEC2Ev(ptr noundef nonnull align 8 dereferenceable(8) %this) unnamed_addr #5 comdat align 2 {
entry:
  %this.addr = alloca ptr, align 8
  store ptr %this, ptr %this.addr, align 8
  ret void
}

; Function Attrs: mustprogress nounwind uwtable
define linkonce_odr void @_ZNSt22_Optional_payload_baseIN9grpc_core9TimestampEEC2Ev(ptr noundef nonnull align 8 dereferenceable(9) %this) unnamed_addr #5 comdat align 2 {
entry:
  %this.addr = alloca ptr, align 8
  store ptr %this, ptr %this.addr, align 8
  %this1 = load ptr, ptr %this.addr, align 8
  %_M_payload = getelementptr inbounds %"struct.std::_Optional_payload_base", ptr %this1, i32 0, i32 0
  call void @_ZNSt22_Optional_payload_baseIN9grpc_core9TimestampEE8_StorageIS1_Lb1EEC2Ev(ptr noundef nonnull align 8 dereferenceable(8) %_M_payload) #3
  %_M_engaged = getelementptr inbounds %"struct.std::_Optional_payload_base", ptr %this1, i32 0, i32 1
  store i8 0, ptr %_M_engaged, align 8
  ret void
}

; Function Attrs: mustprogress nounwind uwtable
define linkonce_odr void @_ZNSt17_Optional_payloadIN9grpc_core9TimestampELb1ELb1ELb1EEC2Ev(ptr noundef nonnull align 8 dereferenceable(9) %this) unnamed_addr #5 comdat align 2 {
entry:
  %this.addr = alloca ptr, align 8
  store ptr %this, ptr %this.addr, align 8
  %this1 = load ptr, ptr %this.addr, align 8
  call void @_ZNSt22_Optional_payload_baseIN9grpc_core9TimestampEEC2Ev(ptr noundef nonnull align 8 dereferenceable(9) %this1) #3
  ret void
}

; Function Attrs: mustprogress nounwind uwtable
define linkonce_odr noundef i32 @_ZStanSt12memory_orderSt23__memory_order_modifier(i32 noundef %__m, i32 noundef %__mod) #5 comdat {
entry:
  %__m.addr = alloca i32, align 4
  %__mod.addr = alloca i32, align 4
  store i32 %__m, ptr %__m.addr, align 4
  store i32 %__mod, ptr %__mod.addr, align 4
  %0 = load i32, ptr %__m.addr, align 4
  %1 = load i32, ptr %__mod.addr, align 4
  %and = and i32 %0, %1
  ret i32 %and
}

; Function Attrs: mustprogress nounwind uwtable
define linkonce_odr void @_ZNSt14_Optional_baseIN9grpc_core9TimestampELb1ELb1EEC2Ev(ptr noundef nonnull align 8 dereferenceable(16) %this) unnamed_addr #5 comdat align 2 {
entry:
  %this.addr = alloca ptr, align 8
  store ptr %this, ptr %this.addr, align 8
  %this1 = load ptr, ptr %this.addr, align 8
  %_M_payload = getelementptr inbounds %"struct.std::_Optional_base", ptr %this1, i32 0, i32 0
  call void @_ZNSt17_Optional_payloadIN9grpc_core9TimestampELb1ELb1ELb1EEC2Ev(ptr noundef nonnull align 8 dereferenceable(9) %_M_payload) #3
  ret void
}

; Function Attrs: uwtable
define linkonce_odr hidden noundef ptr @_ZTWN9grpc_core9Timestamp25thread_local_time_source_E() #12 comdat {
  br i1 icmp ne (ptr @_ZTHN9grpc_core9Timestamp25thread_local_time_source_E, ptr null), label %1, label %2

1:                                                ; preds = %0
  call void @_ZTHN9grpc_core9Timestamp25thread_local_time_source_E()
  br label %2

2:                                                ; preds = %1, %0
  %3 = call align 8 ptr @llvm.threadlocal.address.p0(ptr align 8 @_ZN9grpc_core9Timestamp25thread_local_time_source_E)
  ret ptr %3
}

; Function Attrs: mustprogress nounwind uwtable
define linkonce_odr void @_ZN9grpc_core9Timestamp6SourceC2Ev(ptr noundef nonnull align 8 dereferenceable(8) %this) unnamed_addr #5 comdat align 2 {
entry:
  %this.addr = alloca ptr, align 8
  store ptr %this, ptr %this.addr, align 8
  %this1 = load ptr, ptr %this.addr, align 8
  store ptr getelementptr inbounds ({ [4 x ptr] }, ptr @_ZTVN9grpc_core9Timestamp6SourceE, i32 0, i32 0, i32 2), ptr %this1, align 8
  ret void
}

; Function Attrs: mustprogress nounwind uwtable
define linkonce_odr void @_ZN9grpc_core9Timestamp12ScopedSourceD2Ev(ptr noundef nonnull align 8 dereferenceable(16) %this) unnamed_addr #5 comdat align 2 {
entry:
  %this.addr = alloca ptr, align 8
  store ptr %this, ptr %this.addr, align 8
  %this1 = load ptr, ptr %this.addr, align 8
  store ptr getelementptr inbounds ({ [4 x ptr] }, ptr @_ZTVN9grpc_core9Timestamp12ScopedSourceE, i32 0, i32 0, i32 2), ptr %this1, align 8
  %previous_ = getelementptr inbounds %"class.grpc_core::Timestamp::ScopedSource", ptr %this1, i32 0, i32 1
  %0 = load ptr, ptr %previous_, align 8
  %1 = call ptr @_ZTWN9grpc_core9Timestamp25thread_local_time_source_E()
  store ptr %0, ptr %1, align 8
  ret void
}

; Function Attrs: mustprogress nounwind uwtable
define linkonce_odr noundef zeroext i1 @_ZNKSt6atomicIbE4loadESt12memory_order(ptr noundef nonnull align 1 dereferenceable(1) %this, i32 noundef %__m) #5 comdat align 2 personality ptr @__gxx_personality_v0 {
entry:
  %this.addr.i = alloca ptr, align 8
  %__m.addr.i = alloca i32, align 4
  %__b.i = alloca i32, align 4
  %atomic-temp.i = alloca i8, align 1
  %this.addr = alloca ptr, align 8
  %__m.addr = alloca i32, align 4
  store ptr %this, ptr %this.addr, align 8
  store i32 %__m, ptr %__m.addr, align 4
  %this1 = load ptr, ptr %this.addr, align 8
  %_M_base = getelementptr inbounds %"struct.std::atomic.5", ptr %this1, i32 0, i32 0
  %0 = load i32, ptr %__m.addr, align 4
  store ptr %_M_base, ptr %this.addr.i, align 8
  store i32 %0, ptr %__m.addr.i, align 4
  %this1.i = load ptr, ptr %this.addr.i, align 8
  %1 = load i32, ptr %__m.addr.i, align 4
  %call.i = invoke noundef i32 @_ZStanSt12memory_orderSt23__memory_order_modifier(i32 noundef %1, i32 noundef 65535)
          to label %invoke.cont.i unwind label %terminate.lpad.i

invoke.cont.i:                                    ; preds = %entry
  store i32 %call.i, ptr %__b.i, align 4
  %2 = load i32, ptr %__m.addr.i, align 4
  switch i32 %2, label %monotonic.i [
    i32 1, label %acquire.i
    i32 2, label %acquire.i
    i32 5, label %seqcst.i
  ]

monotonic.i:                                      ; preds = %invoke.cont.i
  %3 = load atomic i8, ptr %this1.i monotonic, align 1
  store i8 %3, ptr %atomic-temp.i, align 1
  br label %_ZNKSt13__atomic_baseIbE4loadESt12memory_order.exit

acquire.i:                                        ; preds = %invoke.cont.i, %invoke.cont.i
  %4 = load atomic i8, ptr %this1.i acquire, align 1
  store i8 %4, ptr %atomic-temp.i, align 1
  br label %_ZNKSt13__atomic_baseIbE4loadESt12memory_order.exit

seqcst.i:                                         ; preds = %invoke.cont.i
  %5 = load atomic i8, ptr %this1.i seq_cst, align 1
  store i8 %5, ptr %atomic-temp.i, align 1
  br label %_ZNKSt13__atomic_baseIbE4loadESt12memory_order.exit

terminate.lpad.i:                                 ; preds = %entry
  %6 = landingpad { ptr, i32 }
          catch ptr null
  %7 = extractvalue { ptr, i32 } %6, 0
  call void @__clang_call_terminate(ptr %7) #17
  unreachable

_ZNKSt13__atomic_baseIbE4loadESt12memory_order.exit: ; preds = %seqcst.i, %acquire.i, %monotonic.i
  %8 = load i8, ptr %atomic-temp.i, align 1
  %tobool.i = trunc i8 %8 to i1
  ret i1 %tobool.i
}

; Function Attrs: uwtable
define linkonce_odr hidden noundef ptr @_ZTWN9grpc_core7ExecCtx9exec_ctx_E() #12 comdat {
  br i1 icmp ne (ptr @_ZTHN9grpc_core7ExecCtx9exec_ctx_E, ptr null), label %1, label %2

1:                                                ; preds = %0
  call void @_ZTHN9grpc_core7ExecCtx9exec_ctx_E()
  br label %2

2:                                                ; preds = %1, %0
  %3 = call align 8 ptr @llvm.threadlocal.address.p0(ptr align 8 @_ZN9grpc_core7ExecCtx9exec_ctx_E)
  ret ptr %3
}

; Function Attrs: mustprogress nounwind uwtable
define linkonce_odr void @_ZNSt8optionalIN9grpc_core9TimestampEEC2Ev(ptr noundef nonnull align 8 dereferenceable(16) %this) unnamed_addr #5 comdat align 2 {
entry:
  %this.addr = alloca ptr, align 8
  store ptr %this, ptr %this.addr, align 8
  %this1 = load ptr, ptr %this.addr, align 8
  call void @_ZNSt14_Optional_baseIN9grpc_core9TimestampELb1ELb1EEC2Ev(ptr noundef nonnull align 8 dereferenceable(16) %this1) #3
  ret void
}

; Function Attrs: mustprogress uwtable
define linkonce_odr void @_ZN9grpc_core9Timestamp12ScopedSourceC2Ev(ptr noundef nonnull align 8 dereferenceable(16) %this) unnamed_addr #4 comdat align 2 {
entry:
  %this.addr = alloca ptr, align 8
  store ptr %this, ptr %this.addr, align 8
  %this1 = load ptr, ptr %this.addr, align 8
  call void @_ZN9grpc_core9Timestamp6SourceC2Ev(ptr noundef nonnull align 8 dereferenceable(8) %this1) #3
  store ptr getelementptr inbounds ({ [4 x ptr] }, ptr @_ZTVN9grpc_core9Timestamp12ScopedSourceE, i32 0, i32 0, i32 2), ptr %this1, align 8
  %previous_ = getelementptr inbounds %"class.grpc_core::Timestamp::ScopedSource", ptr %this1, i32 0, i32 1
  %0 = call ptr @_ZTWN9grpc_core9Timestamp25thread_local_time_source_E()
  %1 = load ptr, ptr %0, align 8
  store ptr %1, ptr %previous_, align 8
  %2 = call ptr @_ZTWN9grpc_core9Timestamp25thread_local_time_source_E()
  store ptr %this1, ptr %2, align 8
  ret void
}

; Function Attrs: mustprogress nounwind uwtable
define linkonce_odr void @_ZN9grpc_core15ScopedTimeCacheD2Ev(ptr noundef nonnull align 8 dereferenceable(32) %this) unnamed_addr #5 comdat align 2 {
entry:
  %this.addr = alloca ptr, align 8
  store ptr %this, ptr %this.addr, align 8
  %this1 = load ptr, ptr %this.addr, align 8
  call void @_ZN9grpc_core9Timestamp12ScopedSourceD2Ev(ptr noundef nonnull align 8 dereferenceable(16) %this1) #3
  ret void
}

; Function Attrs: mustprogress uwtable
define linkonce_odr void @_ZN9grpc_core7ExecCtx3SetEPS0_(ptr noundef %ctx) #4 comdat align 2 {
entry:
  %ctx.addr = alloca ptr, align 8
  store ptr %ctx, ptr %ctx.addr, align 8
  %0 = load ptr, ptr %ctx.addr, align 8
  %1 = call ptr @_ZTWN9grpc_core7ExecCtx9exec_ctx_E()
  store ptr %0, ptr %1, align 8
  ret void
}

; Function Attrs: mustprogress uwtable
define linkonce_odr void @_ZN9grpc_core4Fork15IncExecCtxCountEv() #4 comdat align 2 {
entry:
  %call = call noundef zeroext i1 @_ZNKSt6atomicIbE4loadESt12memory_order(ptr noundef nonnull align 1 dereferenceable(1) @_ZN9grpc_core4Fork16support_enabled_E, i32 noundef 0) #3
  br i1 %call, label %if.then, label %if.end

if.then:                                          ; preds = %entry
  call void @_ZN9grpc_core4Fork17DoIncExecCtxCountEv()
  br label %if.end

if.end:                                           ; preds = %if.then, %entry
  ret void
}

; Function Attrs: mustprogress uwtable
define linkonce_odr noundef ptr @_ZN9grpc_core7ExecCtx3GetEv() #4 comdat align 2 {
entry:
  %0 = call ptr @_ZTWN9grpc_core7ExecCtx9exec_ctx_E()
  %1 = load ptr, ptr %0, align 8
  ret ptr %1
}

; Function Attrs: mustprogress uwtable
define linkonce_odr void @_ZN9grpc_core15ScopedTimeCacheC2Ev(ptr noundef nonnull align 8 dereferenceable(32) %this) unnamed_addr #4 comdat align 2 {
entry:
  %this.addr = alloca ptr, align 8
  store ptr %this, ptr %this.addr, align 8
  %this1 = load ptr, ptr %this.addr, align 8
  call void @_ZN9grpc_core9Timestamp12ScopedSourceC2Ev(ptr noundef nonnull align 8 dereferenceable(16) %this1)
  store ptr getelementptr inbounds ({ [4 x ptr] }, ptr @_ZTVN9grpc_core15ScopedTimeCacheE, i32 0, i32 0, i32 2), ptr %this1, align 8
  %cached_time_ = getelementptr inbounds %"class.grpc_core::ScopedTimeCache", ptr %this1, i32 0, i32 1
  call void @_ZNSt8optionalIN9grpc_core9TimestampEEC2Ev(ptr noundef nonnull align 8 dereferenceable(16) %cached_time_) #3
  ret void
}

; Function Attrs: mustprogress uwtable
define linkonce_odr void @_ZN9grpc_core7ExecCtxC2Ev(ptr noundef nonnull align 8 dereferenceable(88) %this) unnamed_addr #4 comdat align 2 personality ptr @__gxx_personality_v0 {
entry:
  %this.addr = alloca ptr, align 8
  %exn.slot = alloca ptr, align 8
  %ehselector.slot = alloca i32, align 4
  store ptr %this, ptr %this.addr, align 8
  %this1 = load ptr, ptr %this.addr, align 8
  store ptr getelementptr inbounds ({ [5 x ptr] }, ptr @_ZTVN9grpc_core7ExecCtxE, i32 0, i32 0, i32 2), ptr %this1, align 8
  %closure_list_ = getelementptr inbounds %"class.grpc_core::ExecCtx", ptr %this1, i32 0, i32 1
  %head = getelementptr inbounds %struct.grpc_closure_list, ptr %closure_list_, i32 0, i32 0
  store ptr null, ptr %head, align 8
  %tail = getelementptr inbounds %struct.grpc_closure_list, ptr %closure_list_, i32 0, i32 1
  store ptr null, ptr %tail, align 8
  %combiner_data_ = getelementptr inbounds %"class.grpc_core::ExecCtx", ptr %this1, i32 0, i32 2
  %active_combiner = getelementptr inbounds %"struct.grpc_core::ExecCtx::CombinerData", ptr %combiner_data_, i32 0, i32 0
  store ptr null, ptr %active_combiner, align 8
  %last_combiner = getelementptr inbounds %"struct.grpc_core::ExecCtx::CombinerData", ptr %combiner_data_, i32 0, i32 1
  store ptr null, ptr %last_combiner, align 8
  %flags_ = getelementptr inbounds %"class.grpc_core::ExecCtx", ptr %this1, i32 0, i32 3
  store i64 1, ptr %flags_, align 8
  %time_cache_ = getelementptr inbounds %"class.grpc_core::ExecCtx", ptr %this1, i32 0, i32 4
  call void @_ZN9grpc_core15ScopedTimeCacheC2Ev(ptr noundef nonnull align 8 dereferenceable(32) %time_cache_)
  %last_exec_ctx_ = getelementptr inbounds %"class.grpc_core::ExecCtx", ptr %this1, i32 0, i32 5
  %call = invoke noundef ptr @_ZN9grpc_core7ExecCtx3GetEv()
          to label %invoke.cont unwind label %lpad

invoke.cont:                                      ; preds = %entry
  store ptr %call, ptr %last_exec_ctx_, align 8
  invoke void @_ZN9grpc_core4Fork15IncExecCtxCountEv()
          to label %invoke.cont2 unwind label %lpad

invoke.cont2:                                     ; preds = %invoke.cont
  invoke void @_ZN9grpc_core7ExecCtx3SetEPS0_(ptr noundef %this1)
          to label %invoke.cont3 unwind label %lpad

invoke.cont3:                                     ; preds = %invoke.cont2
  ret void

lpad:                                             ; preds = %invoke.cont2, %invoke.cont, %entry
  %0 = landingpad { ptr, i32 }
          cleanup
  %1 = extractvalue { ptr, i32 } %0, 0
  store ptr %1, ptr %exn.slot, align 8
  %2 = extractvalue { ptr, i32 } %0, 1
  store i32 %2, ptr %ehselector.slot, align 4
  call void @_ZN9grpc_core15ScopedTimeCacheD2Ev(ptr noundef nonnull align 8 dereferenceable(32) %time_cache_) #3
  br label %eh.resume

eh.resume:                                        ; preds = %lpad
  %exn = load ptr, ptr %exn.slot, align 8
  %sel = load i32, ptr %ehselector.slot, align 4
  %lpad.val = insertvalue { ptr, i32 } poison, ptr %exn, 0
  %lpad.val4 = insertvalue { ptr, i32 } %lpad.val, i32 %sel, 1
  resume { ptr, i32 } %lpad.val4
}

; Function Attrs: mustprogress uwtable
define void @grpc_tls_certificate_verifier_cancel(ptr noundef %verifier, ptr noundef %request) #4 personality ptr @__gxx_personality_v0 {
entry:
  %verifier.addr = alloca ptr, align 8
  %request.addr = alloca ptr, align 8
  %exec_ctx = alloca %"class.grpc_core::ExecCtx", align 8
  %exn.slot = alloca ptr, align 8
  %ehselector.slot = alloca i32, align 4
  store ptr %verifier, ptr %verifier.addr, align 8
  store ptr %request, ptr %request.addr, align 8
  call void @_ZN9grpc_core7ExecCtxC2Ev(ptr noundef nonnull align 8 dereferenceable(88) %exec_ctx)
  %0 = load ptr, ptr %verifier.addr, align 8
  %1 = load ptr, ptr %request.addr, align 8
  %vtable = load ptr, ptr %0, align 8
  %vfn = getelementptr inbounds ptr, ptr %vtable, i64 3
  %2 = load ptr, ptr %vfn, align 8
  invoke void %2(ptr noundef nonnull align 8 dereferenceable(16) %0, ptr noundef %1)
          to label %invoke.cont unwind label %lpad

invoke.cont:                                      ; preds = %entry
  call void @_ZN9grpc_core7ExecCtxD2Ev(ptr noundef nonnull align 8 dereferenceable(88) %exec_ctx) #3
  ret void

lpad:                                             ; preds = %entry
  %3 = landingpad { ptr, i32 }
          cleanup
  %4 = extractvalue { ptr, i32 } %3, 0
  store ptr %4, ptr %exn.slot, align 8
  %5 = extractvalue { ptr, i32 } %3, 1
  store i32 %5, ptr %ehselector.slot, align 4
  call void @_ZN9grpc_core7ExecCtxD2Ev(ptr noundef nonnull align 8 dereferenceable(88) %exec_ctx) #3
  br label %eh.resume

eh.resume:                                        ; preds = %lpad
  %exn = load ptr, ptr %exn.slot, align 8
  %sel = load i32, ptr %ehselector.slot, align 4
  %lpad.val = insertvalue { ptr, i32 } poison, ptr %exn, 0
  %lpad.val1 = insertvalue { ptr, i32 } %lpad.val, i32 %sel, 1
  resume { ptr, i32 } %lpad.val1
}