; Function Attrs: uwtable
define void @grpc_tls_certificate_verifier_cancel(ptr noundef %verifier, ptr noundef %request) local_unnamed_addr #4 personality ptr @__gxx_personality_v0 {
entry:
  %exec_ctx = alloca %"class.grpc_core::ExecCtx", align 8
  store ptr getelementptr inbounds ({ [5 x ptr] }, ptr @_ZTVN9grpc_core7ExecCtxE, i64 0, i32 0, i64 2), ptr %exec_ctx, align 8
  %closure_list_.i = getelementptr inbounds i8, ptr %exec_ctx, i64 8
  %flags_.i = getelementptr inbounds i8, ptr %exec_ctx, i64 40
  call void @llvm.memset.p0.i64(ptr noundef nonnull align 8 dereferenceable(32) %closure_list_.i, i8 0, i64 32, i1 false)
  store i64 1, ptr %flags_.i, align 8
  %time_cache_.i = getelementptr inbounds i8, ptr %exec_ctx, i64 48
  %previous_.i.i.i = getelementptr inbounds i8, ptr %exec_ctx, i64 56
  br i1 icmp ne (ptr @_ZTHN9grpc_core9Timestamp25thread_local_time_source_E, ptr null), label %0, label %_ZTWN9grpc_core9Timestamp25thread_local_time_source_E.exit.i.i.i

0:                                                ; preds = %entry
  tail call void @_ZTHN9grpc_core9Timestamp25thread_local_time_source_E()
  br label %_ZTWN9grpc_core9Timestamp25thread_local_time_source_E.exit.i.i.i

_ZTWN9grpc_core9Timestamp25thread_local_time_source_E.exit.i.i.i: ; preds = %0, %entry
  %1 = tail call noundef align 8 ptr @llvm.threadlocal.address.p0(ptr align 8 @_ZN9grpc_core9Timestamp25thread_local_time_source_E)
  %2 = load ptr, ptr %1, align 8
  store ptr %2, ptr %previous_.i.i.i, align 8
  br i1 icmp ne (ptr @_ZTHN9grpc_core9Timestamp25thread_local_time_source_E, ptr null), label %3, label %_ZN9grpc_core15ScopedTimeCacheC2Ev.exit.i

3:                                                ; preds = %_ZTWN9grpc_core9Timestamp25thread_local_time_source_E.exit.i.i.i
  tail call void @_ZTHN9grpc_core9Timestamp25thread_local_time_source_E()
  br label %_ZN9grpc_core15ScopedTimeCacheC2Ev.exit.i

_ZN9grpc_core15ScopedTimeCacheC2Ev.exit.i:        ; preds = %3, %_ZTWN9grpc_core9Timestamp25thread_local_time_source_E.exit.i.i.i
  store ptr %time_cache_.i, ptr %1, align 8
  store ptr getelementptr inbounds ({ [4 x ptr] }, ptr @_ZTVN9grpc_core15ScopedTimeCacheE, i64 0, i32 0, i64 2), ptr %time_cache_.i, align 8
  %_M_engaged.i.i.i.i.i.i = getelementptr inbounds i8, ptr %exec_ctx, i64 72
  store i8 0, ptr %_M_engaged.i.i.i.i.i.i, align 8
  br i1 icmp ne (ptr @_ZTHN9grpc_core7ExecCtx9exec_ctx_E, ptr null), label %4, label %invoke.cont.i

4:                                                ; preds = %_ZN9grpc_core15ScopedTimeCacheC2Ev.exit.i
  invoke void @_ZTHN9grpc_core7ExecCtx9exec_ctx_E()
          to label %invoke.cont.i unwind label %lpad.i

invoke.cont.i:                                    ; preds = %4, %_ZN9grpc_core15ScopedTimeCacheC2Ev.exit.i
  %5 = call noundef align 8 ptr @llvm.threadlocal.address.p0(ptr align 8 @_ZN9grpc_core7ExecCtx9exec_ctx_E)
  %6 = load ptr, ptr %5, align 8
  %last_exec_ctx_.i = getelementptr inbounds i8, ptr %exec_ctx, i64 80
  store ptr %6, ptr %last_exec_ctx_.i, align 8
  %7 = load atomic i8, ptr @_ZN9grpc_core4Fork16support_enabled_E monotonic, align 1
  %8 = and i8 %7, 1
  %tobool.i.i.not.i.i = icmp eq i8 %8, 0
  br i1 %tobool.i.i.not.i.i, label %invoke.cont2.i, label %if.then.i.i

if.then.i.i:                                      ; preds = %invoke.cont.i
  invoke void @_ZN9grpc_core4Fork17DoIncExecCtxCountEv()
          to label %invoke.cont2.i unwind label %lpad.i

invoke.cont2.i:                                   ; preds = %if.then.i.i, %invoke.cont.i
  br i1 icmp ne (ptr @_ZTHN9grpc_core7ExecCtx9exec_ctx_E, ptr null), label %9, label %_ZN9grpc_core7ExecCtxC2Ev.exit

9:                                                ; preds = %invoke.cont2.i
  invoke void @_ZTHN9grpc_core7ExecCtx9exec_ctx_E()
          to label %_ZN9grpc_core7ExecCtxC2Ev.exit unwind label %lpad.i

lpad.i:                                           ; preds = %9, %if.then.i.i, %4
  %10 = landingpad { ptr, i32 }
          cleanup
  store ptr getelementptr inbounds ({ [4 x ptr] }, ptr @_ZTVN9grpc_core9Timestamp12ScopedSourceE, i64 0, i32 0, i64 2), ptr %time_cache_.i, align 8
  %11 = load ptr, ptr %previous_.i.i.i, align 8
  br i1 icmp ne (ptr @_ZTHN9grpc_core9Timestamp25thread_local_time_source_E, ptr null), label %12, label %_ZN9grpc_core15ScopedTimeCacheD2Ev.exit.i

12:                                               ; preds = %lpad.i
  call void @_ZTHN9grpc_core9Timestamp25thread_local_time_source_E() #22
  br label %_ZN9grpc_core15ScopedTimeCacheD2Ev.exit.i

common.resume:                                    ; preds = %lpad, %_ZN9grpc_core15ScopedTimeCacheD2Ev.exit.i
  %common.resume.op = phi { ptr, i32 } [ %10, %_ZN9grpc_core15ScopedTimeCacheD2Ev.exit.i ], [ %24, %lpad ]
  resume { ptr, i32 } %common.resume.op

_ZN9grpc_core15ScopedTimeCacheD2Ev.exit.i:        ; preds = %12, %lpad.i
  store ptr %11, ptr %1, align 8
  br label %common.resume

_ZN9grpc_core7ExecCtxC2Ev.exit:                   ; preds = %invoke.cont2.i, %9
  store ptr %exec_ctx, ptr %5, align 8
  %vtable = load ptr, ptr %verifier, align 8
  %vfn = getelementptr inbounds i8, ptr %vtable, i64 24
  %13 = load ptr, ptr %vfn, align 8
  invoke void %13(ptr noundef nonnull align 8 dereferenceable(16) %verifier, ptr noundef %request)
          to label %invoke.cont unwind label %lpad

invoke.cont:                                      ; preds = %_ZN9grpc_core7ExecCtxC2Ev.exit
  store ptr getelementptr inbounds ({ [5 x ptr] }, ptr @_ZTVN9grpc_core7ExecCtxE, i64 0, i32 0, i64 2), ptr %exec_ctx, align 8
  %14 = load i64, ptr %flags_.i, align 8
  %or.i = or i64 %14, 1
  store i64 %or.i, ptr %flags_.i, align 8
  %call.i = invoke noundef zeroext i1 @_ZN9grpc_core7ExecCtx5FlushEv(ptr noundef nonnull align 8 dereferenceable(88) %exec_ctx)
          to label %invoke.cont.i2 unwind label %terminate.lpad.i

invoke.cont.i2:                                   ; preds = %invoke.cont
  %15 = load ptr, ptr %last_exec_ctx_.i, align 8
  br i1 icmp ne (ptr @_ZTHN9grpc_core7ExecCtx9exec_ctx_E, ptr null), label %16, label %invoke.cont2.i4

16:                                               ; preds = %invoke.cont.i2
  invoke void @_ZTHN9grpc_core7ExecCtx9exec_ctx_E()
          to label %invoke.cont2.i4 unwind label %terminate.lpad.i

invoke.cont2.i4:                                  ; preds = %16, %invoke.cont.i2
  store ptr %15, ptr %5, align 8
  %17 = load i64, ptr %flags_.i, align 8
  %and.i = and i64 %17, 4
  %tobool.not.i = icmp eq i64 %and.i, 0
  br i1 %tobool.not.i, label %if.then.i, label %if.end.i

if.then.i:                                        ; preds = %invoke.cont2.i4
  %18 = load atomic i8, ptr @_ZN9grpc_core4Fork16support_enabled_E monotonic, align 1
  %19 = and i8 %18, 1
  %tobool.i.i.not.i.i8 = icmp eq i8 %19, 0
  br i1 %tobool.i.i.not.i.i8, label %if.end.i, label %if.then.i.i9

if.then.i.i9:                                     ; preds = %if.then.i
  invoke void @_ZN9grpc_core4Fork17DoDecExecCtxCountEv()
          to label %if.end.i unwind label %terminate.lpad.i

if.end.i:                                         ; preds = %if.then.i.i9, %if.then.i, %invoke.cont2.i4
  store ptr getelementptr inbounds ({ [4 x ptr] }, ptr @_ZTVN9grpc_core9Timestamp12ScopedSourceE, i64 0, i32 0, i64 2), ptr %time_cache_.i, align 8
  %20 = load ptr, ptr %previous_.i.i.i, align 8
  br i1 icmp ne (ptr @_ZTHN9grpc_core9Timestamp25thread_local_time_source_E, ptr null), label %21, label %_ZN9grpc_core7ExecCtxD2Ev.exit

21:                                               ; preds = %if.end.i
  call void @_ZTHN9grpc_core9Timestamp25thread_local_time_source_E() #22
  br label %_ZN9grpc_core7ExecCtxD2Ev.exit

terminate.lpad.i:                                 ; preds = %if.then.i.i9, %16, %invoke.cont
  %22 = landingpad { ptr, i32 }
          catch ptr null
  %23 = extractvalue { ptr, i32 } %22, 0
  call void @__clang_call_terminate(ptr %23) #21
  unreachable

_ZN9grpc_core7ExecCtxD2Ev.exit:                   ; preds = %if.end.i, %21
  store ptr %20, ptr %1, align 8
  ret void

lpad:                                             ; preds = %_ZN9grpc_core7ExecCtxC2Ev.exit
  %24 = landingpad { ptr, i32 }
          cleanup
  call void @_ZN9grpc_core7ExecCtxD2Ev(ptr noundef nonnull align 8 dereferenceable(88) %exec_ctx) #22
  br label %common.resume
}